; Function Attrs: mustprogress uwtable
define hidden noundef range(i32 4, 6) i32 @_ZN11bv_rewriter11mk_bv_redorEP4exprR7obj_refIS0_11ast_managerE(ptr noundef nonnull align 8 dereferenceable(157) %0, ptr noundef %1, ptr noundef nonnull align 8 captures(none) dereferenceable(16) %2) local_unnamed_addr #3 align 2 {
  %4 = getelementptr inbounds nuw i8, ptr %0, i64 8
  %5 = load i32, ptr %4, align 8, !tbaa !75
  %6 = getelementptr inbounds nuw i8, ptr %1, i64 4
  %7 = load i32, ptr %6, align 4
  %8 = and i32 %7, 65535
  %9 = icmp eq i32 %8, 0
  br i1 %9, label %10, label %_ZNK11bv_rewriter10is_numeralEP4expr.exit.thread

10:                                               ; preds = %3
  %11 = getelementptr inbounds nuw i8, ptr %1, i64 16
  %12 = load ptr, ptr %11, align 8, !tbaa !78
  %13 = getelementptr inbounds nuw i8, ptr %12, i64 24
  %14 = load ptr, ptr %13, align 8, !tbaa !57
  %.not.i.i.i.i.i = icmp eq ptr %14, null
  br i1 %.not.i.i.i.i.i, label %_ZNK11bv_rewriter10is_numeralEP4expr.exit.thread, label %_ZNK11bv_rewriter10is_numeralEP4expr.exit

_ZNK11bv_rewriter10is_numeralEP4expr.exit:        ; preds = %10
  %15 = load i32, ptr %14, align 8, !tbaa !82
  %16 = icmp eq i32 %15, %5
  %17 = getelementptr inbounds nuw i8, ptr %14, i64 4
  %18 = load i32, ptr %17, align 4
  %19 = icmp eq i32 %18, 0
  %20 = select i1 %16, i1 %19, i1 false
  br i1 %20, label %21, label %_ZNK11bv_rewriter10is_numeralEP4expr.exit.thread

21:                                               ; preds = %_ZNK11bv_rewriter10is_numeralEP4expr.exit
  %22 = tail call noundef zeroext i1 @_ZNK14bv_recognizers7is_zeroEPK4expr(ptr noundef nonnull align 4 dereferenceable(4) %4, ptr noundef nonnull %1)
  %_ZN8rational6m_zeroE._ZN8rational5m_oneE = select i1 %22, ptr @_ZN8rational6m_zeroE, ptr @_ZN8rational5m_oneE
  %23 = tail call noundef ptr @_ZNK7bv_util10mk_numeralERK8rationalj(ptr noundef nonnull align 8 dereferenceable(24) %4, ptr noundef nonnull align 8 dereferenceable(32) %_ZN8rational6m_zeroE._ZN8rational5m_oneE, i32 noundef 1)
  %.not.i = icmp eq ptr %23, null
  br i1 %.not.i, label %27, label %_ZN11ast_manager7inc_refEP3ast.exit.i

_ZN11ast_manager7inc_refEP3ast.exit.i:            ; preds = %21
  %24 = getelementptr inbounds nuw i8, ptr %23, i64 8
  %25 = load i32, ptr %24, align 4, !tbaa !71
  %26 = add i32 %25, 1
  store i32 %26, ptr %24, align 4, !tbaa !71
  br label %27

27:                                               ; preds = %_ZN11ast_manager7inc_refEP3ast.exit.i, %21
  %28 = load ptr, ptr %2, align 8, !tbaa !72
  %.not.i4.i = icmp eq ptr %28, null
  br i1 %.not.i4.i, label %_ZN7obj_refI4expr11ast_managerEaSEPS0_.exit, label %29

29:                                               ; preds = %27
  %30 = getelementptr inbounds nuw i8, ptr %2, i64 8
  %31 = load ptr, ptr %30, align 8, !tbaa !73
  %32 = getelementptr inbounds nuw i8, ptr %28, i64 8
  %33 = load i32, ptr %32, align 4, !tbaa !71
  %34 = add i32 %33, -1
  store i32 %34, ptr %32, align 4, !tbaa !71
  %35 = icmp eq i32 %34, 0
  br i1 %35, label %36, label %_ZN7obj_refI4expr11ast_managerEaSEPS0_.exit

36:                                               ; preds = %29
  tail call void @_ZN11ast_manager11delete_nodeEP3ast(ptr noundef nonnull align 8 dereferenceable(976) %31, ptr noundef nonnull %28)
  br label %_ZN7obj_refI4expr11ast_managerEaSEPS0_.exit

_ZN7obj_refI4expr11ast_managerEaSEPS0_.exit:      ; preds = %27, %29, %36
  store ptr %23, ptr %2, align 8, !tbaa !72
  br label %_ZNK11bv_rewriter10is_numeralEP4expr.exit.thread

_ZNK11bv_rewriter10is_numeralEP4expr.exit.thread: ; preds = %10, %3, %_ZNK11bv_rewriter10is_numeralEP4expr.exit, %_ZN7obj_refI4expr11ast_managerEaSEPS0_.exit
  %.0 = phi i32 [ 4, %_ZN7obj_refI4expr11ast_managerEaSEPS0_.exit ], [ 5, %_ZNK11bv_rewriter10is_numeralEP4expr.exit ], [ 5, %3 ], [ 5, %10 ]
  ret i32 %.0
}